#include <math.h>
#include <stdio.h>
#include <stdlib.h>
#include <string.h>



main(){
       int row,col,i,j,*p[100];
       scanf("%d %d",&row,&col);
       for(i=0;i<row;i++){
         p[i]=(int*)malloc(sizeof(int)*col);
         for(j=0;j<col;j++){
           scanf("%d",p[i]+j);
         }
       }
       for(i=0;i<row+col;i++){
         for(j=i;j>=0;j--){
           if(i-j>=row||j>=col) continue;
           else printf("%d\n",*(p[i-j]+j));
         }
       }
}
